; Function Attrs: nounwind uwtable
define dso_local range(i32 -901, 1) i32 @nghttp2_buf_init2(ptr noundef captures(none) initializes((0, 40)) %0, i64 noundef %1, ptr noundef %2) local_unnamed_addr #1 {
  tail call void @llvm.memset.p0.i64(ptr noundef nonnull align 8 dereferenceable(40) %0, i8 0, i64 40, i1 false)
  %4 = getelementptr inbounds nuw i8, ptr %0, i64 8
  %.not.i.not = icmp eq i64 %1, 0
  br i1 %.not.i.not, label %nghttp2_buf_reserve.exit, label %5

5:                                                ; preds = %3
  %6 = tail call ptr @nghttp2_mem_realloc(ptr noundef %2, ptr noundef null, i64 noundef %1) #10
  %7 = icmp eq ptr %6, null
  br i1 %7, label %nghttp2_buf_reserve.exit, label %8

8:                                                ; preds = %5
  %9 = getelementptr inbounds nuw i8, ptr %0, i64 16
  %10 = load ptr, ptr %9, align 8, !tbaa !4
  %11 = load ptr, ptr %0, align 8, !tbaa !10
  %12 = ptrtoint ptr %10 to i64
  %13 = ptrtoint ptr %11 to i64
  %14 = sub i64 %12, %13
  %15 = getelementptr inbounds i8, ptr %6, i64 %14
  store ptr %15, ptr %9, align 8, !tbaa !4
  %16 = getelementptr inbounds nuw i8, ptr %0, i64 24
  %17 = load ptr, ptr %16, align 8, !tbaa !11
  %18 = ptrtoint ptr %17 to i64
  %19 = sub i64 %18, %13
  %20 = getelementptr inbounds i8, ptr %6, i64 %19
  store ptr %20, ptr %16, align 8, !tbaa !11
  %21 = getelementptr inbounds nuw i8, ptr %0, i64 32
  %22 = load ptr, ptr %21, align 8, !tbaa !12
  %23 = ptrtoint ptr %22 to i64
  %24 = sub i64 %23, %13
  %25 = getelementptr inbounds i8, ptr %6, i64 %24
  store ptr %25, ptr %21, align 8, !tbaa !12
  store ptr %6, ptr %0, align 8, !tbaa !10
  %26 = getelementptr inbounds nuw i8, ptr %6, i64 %1
  store ptr %26, ptr %4, align 8, !tbaa !13
  br label %nghttp2_buf_reserve.exit

nghttp2_buf_reserve.exit:                         ; preds = %3, %5, %8
  %.0.i = phi i32 [ 0, %8 ], [ 0, %3 ], [ -901, %5 ]
  ret i32 %.0.i
}